target datalayout = "e-m:e-p270:32:32-p271:32:32-p272:64:64-i64:64-i128:128-f80:128-n8:16:32:64-S128"
target triple = "x86_64-pc-linux-gnu"

%struct.Literal_t_ = type { ptr, ptr, ptr }

; Function Attrs: inlinehint nounwind uwtable
define internal i32 @Kit_TruthIsConst0(ptr noundef %0, i32 noundef %1) #3 {
  %3 = alloca i32, align 4
  %4 = alloca ptr, align 8
  %5 = alloca i32, align 4
  %6 = alloca i32, align 4
  %7 = alloca i32, align 4
  store ptr %0, ptr %4, align 8, !tbaa !10
  store i32 %1, ptr %5, align 4, !tbaa !8
  call void @llvm.lifetime.start.p0(i64 4, ptr %6) #10
  %8 = load i32, ptr %5, align 4, !tbaa !8
  %9 = call i32 @Kit_TruthWordNum(i32 noundef %8)
  %10 = sub nsw i32 %9, 1
  store i32 %10, ptr %6, align 4, !tbaa !8
  br label %11

11:                                               ; preds = %23, %2
  %12 = load i32, ptr %6, align 4, !tbaa !8
  %13 = icmp sge i32 %12, 0
  br i1 %13, label %14, label %26

14:                                               ; preds = %11
  %15 = load ptr, ptr %4, align 8, !tbaa !10
  %16 = load i32, ptr %6, align 4, !tbaa !8
  %17 = sext i32 %16 to i64
  %18 = getelementptr inbounds i32, ptr %15, i64 %17
  %19 = load i32, ptr %18, align 4, !tbaa !8
  %20 = icmp ne i32 %19, 0
  br i1 %20, label %21, label %22

21:                                               ; preds = %14
  store i32 0, ptr %3, align 4
  store i32 1, ptr %7, align 4
  br label %27

22:                                               ; preds = %14
  br label %23

23:                                               ; preds = %22
  %24 = load i32, ptr %6, align 4, !tbaa !8
  %25 = add nsw i32 %24, -1
  store i32 %25, ptr %6, align 4, !tbaa !8
  br label %11, !llvm.loop !19

26:                                               ; preds = %11
  store i32 1, ptr %3, align 4
  store i32 1, ptr %7, align 4
  br label %27

27:                                               ; preds = %26, %21
  call void @llvm.lifetime.end.p0(i64 4, ptr %6) #10
  %28 = load i32, ptr %3, align 4
  ret i32 %28
}

; Function Attrs: inlinehint nounwind uwtable
define internal void @Kit_TruthAnd(ptr noundef %0, ptr noundef %1, ptr noundef %2, i32 noundef %3) #3 {
  %5 = alloca ptr, align 8
  %6 = alloca ptr, align 8
  %7 = alloca ptr, align 8
  %8 = alloca i32, align 4
  %9 = alloca i32, align 4
  store ptr %0, ptr %5, align 8, !tbaa !10
  store ptr %1, ptr %6, align 8, !tbaa !10
  store ptr %2, ptr %7, align 8, !tbaa !10
  store i32 %3, ptr %8, align 4, !tbaa !8
  call void @llvm.lifetime.start.p0(i64 4, ptr %9) #10
  %10 = load i32, ptr %8, align 4, !tbaa !8
  %11 = call i32 @Kit_TruthWordNum(i32 noundef %10)
  %12 = sub nsw i32 %11, 1
  store i32 %12, ptr %9, align 4, !tbaa !8
  br label %13

13:                                               ; preds = %32, %4
  %14 = load i32, ptr %9, align 4, !tbaa !8
  %15 = icmp sge i32 %14, 0
  br i1 %15, label %16, label %35

16:                                               ; preds = %13
  %17 = load ptr, ptr %6, align 8, !tbaa !10
  %18 = load i32, ptr %9, align 4, !tbaa !8
  %19 = sext i32 %18 to i64
  %20 = getelementptr inbounds i32, ptr %17, i64 %19
  %21 = load i32, ptr %20, align 4, !tbaa !8
  %22 = load ptr, ptr %7, align 8, !tbaa !10
  %23 = load i32, ptr %9, align 4, !tbaa !8
  %24 = sext i32 %23 to i64
  %25 = getelementptr inbounds i32, ptr %22, i64 %24
  %26 = load i32, ptr %25, align 4, !tbaa !8
  %27 = and i32 %21, %26
  %28 = load ptr, ptr %5, align 8, !tbaa !10
  %29 = load i32, ptr %9, align 4, !tbaa !8
  %30 = sext i32 %29 to i64
  %31 = getelementptr inbounds i32, ptr %28, i64 %30
  store i32 %27, ptr %31, align 4, !tbaa !8
  br label %32

32:                                               ; preds = %16
  %33 = load i32, ptr %9, align 4, !tbaa !8
  %34 = add nsw i32 %33, -1
  store i32 %34, ptr %9, align 4, !tbaa !8
  br label %13, !llvm.loop !18

35:                                               ; preds = %13
  call void @llvm.lifetime.end.p0(i64 4, ptr %9) #10
  ret void
}

; Function Attrs: inlinehint nounwind uwtable
define internal i32 @Kit_TruthWordNum(i32 noundef %0) #3 {
  %2 = alloca i32, align 4
  store i32 %0, ptr %2, align 4, !tbaa !8
  %3 = load i32, ptr %2, align 4, !tbaa !8
  %4 = icmp sle i32 %3, 5
  br i1 %4, label %5, label %6

5:                                                ; preds = %1
  br label %10

6:                                                ; preds = %1
  %7 = load i32, ptr %2, align 4, !tbaa !8
  %8 = sub nsw i32 %7, 5
  %9 = shl i32 1, %8
  br label %10

10:                                               ; preds = %6, %5
  %11 = phi i32 [ 1, %5 ], [ %9, %6 ]
  ret i32 %11
}

; Function Attrs: nounwind uwtable
define i32 @Rpo_CheckORGroup(ptr noundef %0, ptr noundef %1, i32 noundef %2) #0 {
  %4 = alloca ptr, align 8
  %5 = alloca ptr, align 8
  %6 = alloca i32, align 4
  %7 = alloca ptr, align 8
  %8 = alloca ptr, align 8
  %9 = alloca i32, align 4
  store ptr %0, ptr %4, align 8, !tbaa !3
  store ptr %1, ptr %5, align 8, !tbaa !3
  store i32 %2, ptr %6, align 4, !tbaa !8
  call void @llvm.lifetime.start.p0(i64 8, ptr %7) #10
  %10 = load i32, ptr %6, align 4, !tbaa !8
  %11 = call i32 @Kit_TruthWordNum(i32 noundef %10)
  %12 = sext i32 %11 to i64
  %13 = mul i64 4, %12
  %14 = call noalias ptr @malloc(i64 noundef %13) #11
  store ptr %14, ptr %7, align 8, !tbaa !10
  call void @llvm.lifetime.start.p0(i64 8, ptr %8) #10
  %15 = load i32, ptr %6, align 4, !tbaa !8
  %16 = call i32 @Kit_TruthWordNum(i32 noundef %15)
  %17 = sext i32 %16 to i64
  %18 = mul i64 4, %17
  %19 = call noalias ptr @malloc(i64 noundef %18) #11
  store ptr %19, ptr %8, align 8, !tbaa !10
  call void @llvm.lifetime.start.p0(i64 4, ptr %9) #10
  %20 = load ptr, ptr %7, align 8, !tbaa !10
  %21 = load ptr, ptr %4, align 8, !tbaa !3
  %22 = getelementptr inbounds nuw %struct.Literal_t_, ptr %21, i32 0, i32 0
  %23 = load ptr, ptr %22, align 8, !tbaa !15
  %24 = load ptr, ptr %5, align 8, !tbaa !3
  %25 = getelementptr inbounds nuw %struct.Literal_t_, ptr %24, i32 0, i32 1
  %26 = load ptr, ptr %25, align 8, !tbaa !12
  %27 = load i32, ptr %6, align 4, !tbaa !8
  call void @Kit_TruthAnd(ptr noundef %20, ptr noundef %23, ptr noundef %26, i32 noundef %27)
  %28 = load ptr, ptr %7, align 8, !tbaa !10
  %29 = load i32, ptr %6, align 4, !tbaa !8
  %30 = call i32 @Kit_TruthIsConst0(ptr noundef %28, i32 noundef %29)
  store i32 %30, ptr %9, align 4, !tbaa !8
  %31 = load i32, ptr %9, align 4, !tbaa !8
  %32 = icmp ne i32 %31, 0
  br i1 %32, label %33, label %45

33:                                               ; preds = %3
  %34 = load ptr, ptr %8, align 8, !tbaa !10
  %35 = load ptr, ptr %5, align 8, !tbaa !3
  %36 = getelementptr inbounds nuw %struct.Literal_t_, ptr %35, i32 0, i32 0
  %37 = load ptr, ptr %36, align 8, !tbaa !15
  %38 = load ptr, ptr %4, align 8, !tbaa !3
  %39 = getelementptr inbounds nuw %struct.Literal_t_, ptr %38, i32 0, i32 1
  %40 = load ptr, ptr %39, align 8, !tbaa !12
  %41 = load i32, ptr %6, align 4, !tbaa !8
  call void @Kit_TruthAnd(ptr noundef %34, ptr noundef %37, ptr noundef %40, i32 noundef %41)
  %42 = load ptr, ptr %8, align 8, !tbaa !10
  %43 = load i32, ptr %6, align 4, !tbaa !8
  %44 = call i32 @Kit_TruthIsConst0(ptr noundef %42, i32 noundef %43)
  store i32 %44, ptr %9, align 4, !tbaa !8
  br label %45

45:                                               ; preds = %33, %3
  %46 = load ptr, ptr %7, align 8, !tbaa !10
  %47 = icmp ne ptr %46, null
  br i1 %47, label %48, label %50

48:                                               ; preds = %45
  %49 = load ptr, ptr %7, align 8, !tbaa !10
  call void @free(ptr noundef %49) #10
  store ptr null, ptr %7, align 8, !tbaa !10
  br label %51

50:                                               ; preds = %45
  br label %51

51:                                               ; preds = %50, %48
  %52 = load ptr, ptr %8, align 8, !tbaa !10
  %53 = icmp ne ptr %52, null
  br i1 %53, label %54, label %56

54:                                               ; preds = %51
  %55 = load ptr, ptr %8, align 8, !tbaa !10
  call void @free(ptr noundef %55) #10
  store ptr null, ptr %8, align 8, !tbaa !10
  br label %57

56:                                               ; preds = %51
  br label %57

57:                                               ; preds = %56, %54
  %58 = load i32, ptr %9, align 4, !tbaa !8
  call void @llvm.lifetime.end.p0(i64 4, ptr %9) #10
  call void @llvm.lifetime.end.p0(i64 8, ptr %8) #10
  call void @llvm.lifetime.end.p0(i64 8, ptr %7) #10
  ret i32 %58
}