; Function Attrs: nounwind memory(readwrite, argmem: read) uwtable
define range(i32 0, 2) i32 @Rpo_CheckORGroup(ptr noundef readonly captures(none) %0, ptr noundef readonly captures(none) %1, i32 noundef %2) local_unnamed_addr #0 {
  %4 = icmp slt i32 %2, 6
  %5 = add nsw i32 %2, -5
  %6 = shl nuw i32 1, %5
  %7 = select i1 %4, i32 1, i32 %6
  %8 = sext i32 %7 to i64
  %9 = shl nsw i64 %8, 2
  %10 = tail call noalias ptr @malloc(i64 noundef %9) #16
  %11 = tail call noalias ptr @malloc(i64 noundef %9) #16
  %12 = load ptr, ptr %0, align 8, !tbaa !14
  %13 = getelementptr inbounds nuw i8, ptr %1, i64 8
  %14 = load ptr, ptr %13, align 8, !tbaa !3
  %15 = icmp sgt i32 %7, 0
  br i1 %15, label %select.unfold.preheader.i, label %Kit_TruthAnd.exit

select.unfold.preheader.i:                        ; preds = %3
  %16 = zext nneg i32 %7 to i64
  br label %select.unfold.i

select.unfold.i:                                  ; preds = %select.unfold.i, %select.unfold.preheader.i
  %indvars.iv.i = phi i64 [ %16, %select.unfold.preheader.i ], [ %indvars.iv.next.i, %select.unfold.i ]
  %indvars.iv.next.i = add nsw i64 %indvars.iv.i, -1
  %17 = getelementptr inbounds nuw i32, ptr %12, i64 %indvars.iv.next.i
  %18 = load i32, ptr %17, align 4, !tbaa !10
  %19 = getelementptr inbounds nuw i32, ptr %14, i64 %indvars.iv.next.i
  %20 = load i32, ptr %19, align 4, !tbaa !10
  %21 = and i32 %20, %18
  %22 = getelementptr inbounds nuw i32, ptr %10, i64 %indvars.iv.next.i
  store i32 %21, ptr %22, align 4, !tbaa !10
  %23 = icmp samesign ugt i64 %indvars.iv.i, 1
  br i1 %23, label %select.unfold.i, label %Kit_TruthAnd.exit, !llvm.loop !15

Kit_TruthAnd.exit:                                ; preds = %select.unfold.i, %3
  %.pre-phi = phi i64 [ 2147483648, %3 ], [ %16, %select.unfold.i ]
  br label %select.unfold.i25

select.unfold.i25:                                ; preds = %26, %Kit_TruthAnd.exit
  %indvars.iv.i26 = phi i64 [ %.pre-phi, %Kit_TruthAnd.exit ], [ %27, %26 ]
  %24 = trunc nuw i64 %indvars.iv.i26 to i32
  %25 = icmp sgt i32 %24, 0
  br i1 %25, label %26, label %Kit_TruthIsConst0.exit

26:                                               ; preds = %select.unfold.i25
  %27 = add nsw i64 %indvars.iv.i26, -1
  %28 = getelementptr inbounds nuw i32, ptr %10, i64 %27
  %29 = load i32, ptr %28, align 4, !tbaa !10
  %.not.i = icmp eq i32 %29, 0
  br i1 %.not.i, label %select.unfold.i25, label %Kit_TruthIsConst0.exit38.thread, !llvm.loop !16

Kit_TruthIsConst0.exit:                           ; preds = %select.unfold.i25
  %30 = load ptr, ptr %1, align 8, !tbaa !14
  %31 = getelementptr inbounds nuw i8, ptr %0, i64 8
  %32 = load ptr, ptr %31, align 8, !tbaa !3
  br i1 %15, label %select.unfold.i29, label %select.unfold.i34.preheader

select.unfold.i29:                                ; preds = %Kit_TruthIsConst0.exit, %select.unfold.i29
  %indvars.iv.i30 = phi i64 [ %indvars.iv.next.i31, %select.unfold.i29 ], [ %.pre-phi, %Kit_TruthIsConst0.exit ]
  %indvars.iv.next.i31 = add nsw i64 %indvars.iv.i30, -1
  %33 = getelementptr inbounds nuw i32, ptr %30, i64 %indvars.iv.next.i31
  %34 = load i32, ptr %33, align 4, !tbaa !10
  %35 = getelementptr inbounds nuw i32, ptr %32, i64 %indvars.iv.next.i31
  %36 = load i32, ptr %35, align 4, !tbaa !10
  %37 = and i32 %36, %34
  %38 = getelementptr inbounds nuw i32, ptr %11, i64 %indvars.iv.next.i31
  store i32 %37, ptr %38, align 4, !tbaa !10
  %39 = icmp samesign ugt i64 %indvars.iv.i30, 1
  br i1 %39, label %select.unfold.i29, label %select.unfold.i34.preheader, !llvm.loop !15

select.unfold.i34.preheader:                      ; preds = %select.unfold.i29, %Kit_TruthIsConst0.exit
  br label %select.unfold.i34

select.unfold.i34:                                ; preds = %select.unfold.i34.preheader, %42
  %indvars.iv.i35 = phi i64 [ %43, %42 ], [ %.pre-phi, %select.unfold.i34.preheader ]
  %40 = trunc nuw i64 %indvars.iv.i35 to i32
  %41 = icmp sgt i32 %40, 0
  br i1 %41, label %42, label %Kit_TruthIsConst0.exit38

42:                                               ; preds = %select.unfold.i34
  %43 = add nsw i64 %indvars.iv.i35, -1
  %44 = getelementptr inbounds nuw i32, ptr %11, i64 %43
  %45 = load i32, ptr %44, align 4, !tbaa !10
  %.not.i37 = icmp eq i32 %45, 0
  br i1 %.not.i37, label %select.unfold.i34, label %Kit_TruthIsConst0.exit38, !llvm.loop !16

Kit_TruthIsConst0.exit38:                         ; preds = %42, %select.unfold.i34
  %.0 = phi i32 [ 0, %42 ], [ 1, %select.unfold.i34 ]
  %.not22 = icmp eq ptr %10, null
  br i1 %.not22, label %46, label %Kit_TruthIsConst0.exit38.thread

Kit_TruthIsConst0.exit38.thread:                  ; preds = %26, %Kit_TruthIsConst0.exit38
  %.043 = phi i32 [ %.0, %Kit_TruthIsConst0.exit38 ], [ 0, %26 ]
  tail call void @free(ptr noundef nonnull %10) #17
  br label %46

46:                                               ; preds = %Kit_TruthIsConst0.exit38, %Kit_TruthIsConst0.exit38.thread
  %.044 = phi i32 [ %.0, %Kit_TruthIsConst0.exit38 ], [ %.043, %Kit_TruthIsConst0.exit38.thread ]
  %.not23 = icmp eq ptr %11, null
  br i1 %.not23, label %48, label %47

47:                                               ; preds = %46
  tail call void @free(ptr noundef nonnull %11) #17
  br label %48

48:                                               ; preds = %46, %47
  ret i32 %.044
}